target datalayout = "e-m:e-p270:32:32-p271:32:32-p272:64:64-i64:64-i128:128-f80:128-n8:16:32:64-S128"
target triple = "x86_64-pc-linux-gnu"

%struct.ct_data_s = type { %union.anon, %union.anon.0 }
%union.anon = type { i16 }
%union.anon.0 = type { i16 }
%struct.internal_state = type { ptr, i32, ptr, i64, ptr, i32, i32, ptr, i32, i8, i32, i32, i32, i32, ptr, i64, ptr, ptr, i32, i32, i32, i32, i32, i64, i32, i32, i32, i32, i32, i32, i32, i32, i32, i32, i32, i32, i32, [573 x %struct.ct_data_s], [61 x %struct.ct_data_s], [39 x %struct.ct_data_s], %struct.tree_desc_s, %struct.tree_desc_s, %struct.tree_desc_s, [16 x i16], [573 x i32], i32, i32, [573 x i8], ptr, i32, i32, ptr, i64, i64, i32, i32, i16, i32, i64 }
%struct.tree_desc_s = type { ptr, i32, ptr }

; Function Attrs: nounwind uwtable
define internal void @bi_flush(ptr noundef %0) #0 {
  %2 = alloca ptr, align 8
  store ptr %0, ptr %2, align 8, !tbaa !3
  %3 = load ptr, ptr %2, align 8, !tbaa !3
  %4 = getelementptr inbounds nuw %struct.internal_state, ptr %3, i32 0, i32 57
  %5 = load i32, ptr %4, align 4, !tbaa !26
  %6 = icmp eq i32 %5, 16
  br i1 %6, label %7, label %42

7:                                                ; preds = %1
  %8 = load ptr, ptr %2, align 8, !tbaa !3
  %9 = getelementptr inbounds nuw %struct.internal_state, ptr %8, i32 0, i32 56
  %10 = load i16, ptr %9, align 8, !tbaa !25
  %11 = zext i16 %10 to i32
  %12 = and i32 %11, 255
  %13 = trunc i32 %12 to i8
  %14 = load ptr, ptr %2, align 8, !tbaa !3
  %15 = getelementptr inbounds nuw %struct.internal_state, ptr %14, i32 0, i32 2
  %16 = load ptr, ptr %15, align 8, !tbaa !39
  %17 = load ptr, ptr %2, align 8, !tbaa !3
  %18 = getelementptr inbounds nuw %struct.internal_state, ptr %17, i32 0, i32 5
  %19 = load i32, ptr %18, align 8, !tbaa !40
  %20 = add i32 %19, 1
  store i32 %20, ptr %18, align 8, !tbaa !40
  %21 = zext i32 %19 to i64
  %22 = getelementptr inbounds nuw i8, ptr %16, i64 %21
  store i8 %13, ptr %22, align 1, !tbaa !28
  %23 = load ptr, ptr %2, align 8, !tbaa !3
  %24 = getelementptr inbounds nuw %struct.internal_state, ptr %23, i32 0, i32 56
  %25 = load i16, ptr %24, align 8, !tbaa !25
  %26 = zext i16 %25 to i32
  %27 = ashr i32 %26, 8
  %28 = trunc i32 %27 to i8
  %29 = load ptr, ptr %2, align 8, !tbaa !3
  %30 = getelementptr inbounds nuw %struct.internal_state, ptr %29, i32 0, i32 2
  %31 = load ptr, ptr %30, align 8, !tbaa !39
  %32 = load ptr, ptr %2, align 8, !tbaa !3
  %33 = getelementptr inbounds nuw %struct.internal_state, ptr %32, i32 0, i32 5
  %34 = load i32, ptr %33, align 8, !tbaa !40
  %35 = add i32 %34, 1
  store i32 %35, ptr %33, align 8, !tbaa !40
  %36 = zext i32 %34 to i64
  %37 = getelementptr inbounds nuw i8, ptr %31, i64 %36
  store i8 %28, ptr %37, align 1, !tbaa !28
  %38 = load ptr, ptr %2, align 8, !tbaa !3
  %39 = getelementptr inbounds nuw %struct.internal_state, ptr %38, i32 0, i32 56
  store i16 0, ptr %39, align 8, !tbaa !25
  %40 = load ptr, ptr %2, align 8, !tbaa !3
  %41 = getelementptr inbounds nuw %struct.internal_state, ptr %40, i32 0, i32 57
  store i32 0, ptr %41, align 4, !tbaa !26
  br label %72

42:                                               ; preds = %1
  %43 = load ptr, ptr %2, align 8, !tbaa !3
  %44 = getelementptr inbounds nuw %struct.internal_state, ptr %43, i32 0, i32 57
  %45 = load i32, ptr %44, align 4, !tbaa !26
  %46 = icmp sge i32 %45, 8
  br i1 %46, label %47, label %71

47:                                               ; preds = %42
  %48 = load ptr, ptr %2, align 8, !tbaa !3
  %49 = getelementptr inbounds nuw %struct.internal_state, ptr %48, i32 0, i32 56
  %50 = load i16, ptr %49, align 8, !tbaa !25
  %51 = trunc i16 %50 to i8
  %52 = load ptr, ptr %2, align 8, !tbaa !3
  %53 = getelementptr inbounds nuw %struct.internal_state, ptr %52, i32 0, i32 2
  %54 = load ptr, ptr %53, align 8, !tbaa !39
  %55 = load ptr, ptr %2, align 8, !tbaa !3
  %56 = getelementptr inbounds nuw %struct.internal_state, ptr %55, i32 0, i32 5
  %57 = load i32, ptr %56, align 8, !tbaa !40
  %58 = add i32 %57, 1
  store i32 %58, ptr %56, align 8, !tbaa !40
  %59 = zext i32 %57 to i64
  %60 = getelementptr inbounds nuw i8, ptr %54, i64 %59
  store i8 %51, ptr %60, align 1, !tbaa !28
  %61 = load ptr, ptr %2, align 8, !tbaa !3
  %62 = getelementptr inbounds nuw %struct.internal_state, ptr %61, i32 0, i32 56
  %63 = load i16, ptr %62, align 8, !tbaa !25
  %64 = zext i16 %63 to i32
  %65 = ashr i32 %64, 8
  %66 = trunc i32 %65 to i16
  store i16 %66, ptr %62, align 8, !tbaa !25
  %67 = load ptr, ptr %2, align 8, !tbaa !3
  %68 = getelementptr inbounds nuw %struct.internal_state, ptr %67, i32 0, i32 57
  %69 = load i32, ptr %68, align 4, !tbaa !26
  %70 = sub nsw i32 %69, 8
  store i32 %70, ptr %68, align 4, !tbaa !26
  br label %71

71:                                               ; preds = %47, %42
  br label %72

72:                                               ; preds = %71, %7
  ret void
}

; Function Attrs: nounwind uwtable
define void @_tr_align(ptr noundef %0) #0 {
  %2 = alloca ptr, align 8
  %3 = alloca i32, align 4
  %4 = alloca i32, align 4
  %5 = alloca i32, align 4
  %6 = alloca i32, align 4
  store ptr %0, ptr %2, align 8, !tbaa !3
  call void @llvm.lifetime.start.p0(i64 4, ptr %3) #2
  store i32 3, ptr %3, align 4, !tbaa !27
  %7 = load ptr, ptr %2, align 8, !tbaa !3
  %8 = getelementptr inbounds nuw %struct.internal_state, ptr %7, i32 0, i32 57
  %9 = load i32, ptr %8, align 4, !tbaa !26
  %10 = load i32, ptr %3, align 4, !tbaa !27
  %11 = sub nsw i32 16, %10
  %12 = icmp sgt i32 %9, %11
  br i1 %12, label %13, label %74

13:                                               ; preds = %1
  call void @llvm.lifetime.start.p0(i64 4, ptr %4) #2
  store i32 2, ptr %4, align 4, !tbaa !27
  %14 = load i32, ptr %4, align 4, !tbaa !27
  %15 = trunc i32 %14 to i16
  %16 = zext i16 %15 to i32
  %17 = load ptr, ptr %2, align 8, !tbaa !3
  %18 = getelementptr inbounds nuw %struct.internal_state, ptr %17, i32 0, i32 57
  %19 = load i32, ptr %18, align 4, !tbaa !26
  %20 = shl i32 %16, %19
  %21 = load ptr, ptr %2, align 8, !tbaa !3
  %22 = getelementptr inbounds nuw %struct.internal_state, ptr %21, i32 0, i32 56
  %23 = load i16, ptr %22, align 8, !tbaa !25
  %24 = zext i16 %23 to i32
  %25 = or i32 %24, %20
  %26 = trunc i32 %25 to i16
  store i16 %26, ptr %22, align 8, !tbaa !25
  %27 = load ptr, ptr %2, align 8, !tbaa !3
  %28 = getelementptr inbounds nuw %struct.internal_state, ptr %27, i32 0, i32 56
  %29 = load i16, ptr %28, align 8, !tbaa !25
  %30 = zext i16 %29 to i32
  %31 = and i32 %30, 255
  %32 = trunc i32 %31 to i8
  %33 = load ptr, ptr %2, align 8, !tbaa !3
  %34 = getelementptr inbounds nuw %struct.internal_state, ptr %33, i32 0, i32 2
  %35 = load ptr, ptr %34, align 8, !tbaa !39
  %36 = load ptr, ptr %2, align 8, !tbaa !3
  %37 = getelementptr inbounds nuw %struct.internal_state, ptr %36, i32 0, i32 5
  %38 = load i32, ptr %37, align 8, !tbaa !40
  %39 = add i32 %38, 1
  store i32 %39, ptr %37, align 8, !tbaa !40
  %40 = zext i32 %38 to i64
  %41 = getelementptr inbounds nuw i8, ptr %35, i64 %40
  store i8 %32, ptr %41, align 1, !tbaa !28
  %42 = load ptr, ptr %2, align 8, !tbaa !3
  %43 = getelementptr inbounds nuw %struct.internal_state, ptr %42, i32 0, i32 56
  %44 = load i16, ptr %43, align 8, !tbaa !25
  %45 = zext i16 %44 to i32
  %46 = ashr i32 %45, 8
  %47 = trunc i32 %46 to i8
  %48 = load ptr, ptr %2, align 8, !tbaa !3
  %49 = getelementptr inbounds nuw %struct.internal_state, ptr %48, i32 0, i32 2
  %50 = load ptr, ptr %49, align 8, !tbaa !39
  %51 = load ptr, ptr %2, align 8, !tbaa !3
  %52 = getelementptr inbounds nuw %struct.internal_state, ptr %51, i32 0, i32 5
  %53 = load i32, ptr %52, align 8, !tbaa !40
  %54 = add i32 %53, 1
  store i32 %54, ptr %52, align 8, !tbaa !40
  %55 = zext i32 %53 to i64
  %56 = getelementptr inbounds nuw i8, ptr %50, i64 %55
  store i8 %47, ptr %56, align 1, !tbaa !28
  %57 = load i32, ptr %4, align 4, !tbaa !27
  %58 = trunc i32 %57 to i16
  %59 = zext i16 %58 to i32
  %60 = load ptr, ptr %2, align 8, !tbaa !3
  %61 = getelementptr inbounds nuw %struct.internal_state, ptr %60, i32 0, i32 57
  %62 = load i32, ptr %61, align 4, !tbaa !26
  %63 = sub nsw i32 16, %62
  %64 = ashr i32 %59, %63
  %65 = trunc i32 %64 to i16
  %66 = load ptr, ptr %2, align 8, !tbaa !3
  %67 = getelementptr inbounds nuw %struct.internal_state, ptr %66, i32 0, i32 56
  store i16 %65, ptr %67, align 8, !tbaa !25
  %68 = load i32, ptr %3, align 4, !tbaa !27
  %69 = sub nsw i32 %68, 16
  %70 = load ptr, ptr %2, align 8, !tbaa !3
  %71 = getelementptr inbounds nuw %struct.internal_state, ptr %70, i32 0, i32 57
  %72 = load i32, ptr %71, align 4, !tbaa !26
  %73 = add nsw i32 %72, %69
  store i32 %73, ptr %71, align 4, !tbaa !26
  call void @llvm.lifetime.end.p0(i64 4, ptr %4) #2
  br label %90

74:                                               ; preds = %1
  %75 = load ptr, ptr %2, align 8, !tbaa !3
  %76 = getelementptr inbounds nuw %struct.internal_state, ptr %75, i32 0, i32 57
  %77 = load i32, ptr %76, align 4, !tbaa !26
  %78 = shl i32 2, %77
  %79 = load ptr, ptr %2, align 8, !tbaa !3
  %80 = getelementptr inbounds nuw %struct.internal_state, ptr %79, i32 0, i32 56
  %81 = load i16, ptr %80, align 8, !tbaa !25
  %82 = zext i16 %81 to i32
  %83 = or i32 %82, %78
  %84 = trunc i32 %83 to i16
  store i16 %84, ptr %80, align 8, !tbaa !25
  %85 = load i32, ptr %3, align 4, !tbaa !27
  %86 = load ptr, ptr %2, align 8, !tbaa !3
  %87 = getelementptr inbounds nuw %struct.internal_state, ptr %86, i32 0, i32 57
  %88 = load i32, ptr %87, align 4, !tbaa !26
  %89 = add nsw i32 %88, %85
  store i32 %89, ptr %87, align 4, !tbaa !26
  br label %90

90:                                               ; preds = %74, %13
  call void @llvm.lifetime.end.p0(i64 4, ptr %3) #2
  call void @llvm.lifetime.start.p0(i64 4, ptr %5) #2
  %91 = load i16, ptr getelementptr inbounds nuw (%struct.ct_data_s, ptr getelementptr inbounds ([288 x %struct.ct_data_s], ptr @static_ltree, i64 0, i64 256), i32 0, i32 1), align 2, !tbaa !28
  %92 = zext i16 %91 to i32
  store i32 %92, ptr %5, align 4, !tbaa !27
  %93 = load ptr, ptr %2, align 8, !tbaa !3
  %94 = getelementptr inbounds nuw %struct.internal_state, ptr %93, i32 0, i32 57
  %95 = load i32, ptr %94, align 4, !tbaa !26
  %96 = load i32, ptr %5, align 4, !tbaa !27
  %97 = sub nsw i32 16, %96
  %98 = icmp sgt i32 %95, %97
  br i1 %98, label %99, label %162

99:                                               ; preds = %90
  call void @llvm.lifetime.start.p0(i64 4, ptr %6) #2
  %100 = load i16, ptr getelementptr inbounds ([288 x %struct.ct_data_s], ptr @static_ltree, i64 0, i64 256), align 16, !tbaa !28
  %101 = zext i16 %100 to i32
  store i32 %101, ptr %6, align 4, !tbaa !27
  %102 = load i32, ptr %6, align 4, !tbaa !27
  %103 = trunc i32 %102 to i16
  %104 = zext i16 %103 to i32
  %105 = load ptr, ptr %2, align 8, !tbaa !3
  %106 = getelementptr inbounds nuw %struct.internal_state, ptr %105, i32 0, i32 57
  %107 = load i32, ptr %106, align 4, !tbaa !26
  %108 = shl i32 %104, %107
  %109 = load ptr, ptr %2, align 8, !tbaa !3
  %110 = getelementptr inbounds nuw %struct.internal_state, ptr %109, i32 0, i32 56
  %111 = load i16, ptr %110, align 8, !tbaa !25
  %112 = zext i16 %111 to i32
  %113 = or i32 %112, %108
  %114 = trunc i32 %113 to i16
  store i16 %114, ptr %110, align 8, !tbaa !25
  %115 = load ptr, ptr %2, align 8, !tbaa !3
  %116 = getelementptr inbounds nuw %struct.internal_state, ptr %115, i32 0, i32 56
  %117 = load i16, ptr %116, align 8, !tbaa !25
  %118 = zext i16 %117 to i32
  %119 = and i32 %118, 255
  %120 = trunc i32 %119 to i8
  %121 = load ptr, ptr %2, align 8, !tbaa !3
  %122 = getelementptr inbounds nuw %struct.internal_state, ptr %121, i32 0, i32 2
  %123 = load ptr, ptr %122, align 8, !tbaa !39
  %124 = load ptr, ptr %2, align 8, !tbaa !3
  %125 = getelementptr inbounds nuw %struct.internal_state, ptr %124, i32 0, i32 5
  %126 = load i32, ptr %125, align 8, !tbaa !40
  %127 = add i32 %126, 1
  store i32 %127, ptr %125, align 8, !tbaa !40
  %128 = zext i32 %126 to i64
  %129 = getelementptr inbounds nuw i8, ptr %123, i64 %128
  store i8 %120, ptr %129, align 1, !tbaa !28
  %130 = load ptr, ptr %2, align 8, !tbaa !3
  %131 = getelementptr inbounds nuw %struct.internal_state, ptr %130, i32 0, i32 56
  %132 = load i16, ptr %131, align 8, !tbaa !25
  %133 = zext i16 %132 to i32
  %134 = ashr i32 %133, 8
  %135 = trunc i32 %134 to i8
  %136 = load ptr, ptr %2, align 8, !tbaa !3
  %137 = getelementptr inbounds nuw %struct.internal_state, ptr %136, i32 0, i32 2
  %138 = load ptr, ptr %137, align 8, !tbaa !39
  %139 = load ptr, ptr %2, align 8, !tbaa !3
  %140 = getelementptr inbounds nuw %struct.internal_state, ptr %139, i32 0, i32 5
  %141 = load i32, ptr %140, align 8, !tbaa !40
  %142 = add i32 %141, 1
  store i32 %142, ptr %140, align 8, !tbaa !40
  %143 = zext i32 %141 to i64
  %144 = getelementptr inbounds nuw i8, ptr %138, i64 %143
  store i8 %135, ptr %144, align 1, !tbaa !28
  %145 = load i32, ptr %6, align 4, !tbaa !27
  %146 = trunc i32 %145 to i16
  %147 = zext i16 %146 to i32
  %148 = load ptr, ptr %2, align 8, !tbaa !3
  %149 = getelementptr inbounds nuw %struct.internal_state, ptr %148, i32 0, i32 57
  %150 = load i32, ptr %149, align 4, !tbaa !26
  %151 = sub nsw i32 16, %150
  %152 = ashr i32 %147, %151
  %153 = trunc i32 %152 to i16
  %154 = load ptr, ptr %2, align 8, !tbaa !3
  %155 = getelementptr inbounds nuw %struct.internal_state, ptr %154, i32 0, i32 56
  store i16 %153, ptr %155, align 8, !tbaa !25
  %156 = load i32, ptr %5, align 4, !tbaa !27
  %157 = sub nsw i32 %156, 16
  %158 = load ptr, ptr %2, align 8, !tbaa !3
  %159 = getelementptr inbounds nuw %struct.internal_state, ptr %158, i32 0, i32 57
  %160 = load i32, ptr %159, align 4, !tbaa !26
  %161 = add nsw i32 %160, %157
  store i32 %161, ptr %159, align 4, !tbaa !26
  call void @llvm.lifetime.end.p0(i64 4, ptr %6) #2
  br label %180

162:                                              ; preds = %90
  %163 = load i16, ptr getelementptr inbounds ([288 x %struct.ct_data_s], ptr @static_ltree, i64 0, i64 256), align 16, !tbaa !28
  %164 = zext i16 %163 to i32
  %165 = load ptr, ptr %2, align 8, !tbaa !3
  %166 = getelementptr inbounds nuw %struct.internal_state, ptr %165, i32 0, i32 57
  %167 = load i32, ptr %166, align 4, !tbaa !26
  %168 = shl i32 %164, %167
  %169 = load ptr, ptr %2, align 8, !tbaa !3
  %170 = getelementptr inbounds nuw %struct.internal_state, ptr %169, i32 0, i32 56
  %171 = load i16, ptr %170, align 8, !tbaa !25
  %172 = zext i16 %171 to i32
  %173 = or i32 %172, %168
  %174 = trunc i32 %173 to i16
  store i16 %174, ptr %170, align 8, !tbaa !25
  %175 = load i32, ptr %5, align 4, !tbaa !27
  %176 = load ptr, ptr %2, align 8, !tbaa !3
  %177 = getelementptr inbounds nuw %struct.internal_state, ptr %176, i32 0, i32 57
  %178 = load i32, ptr %177, align 4, !tbaa !26
  %179 = add nsw i32 %178, %175
  store i32 %179, ptr %177, align 4, !tbaa !26
  br label %180

180:                                              ; preds = %162, %99
  call void @llvm.lifetime.end.p0(i64 4, ptr %5) #2
  %181 = load ptr, ptr %2, align 8, !tbaa !3
  call void @bi_flush(ptr noundef %181)
  ret void
}